; Function Attrs: nounwind uwtable
define noundef i32 @EVP_PKEY_CTX_set0_ecdh_kdf_ukm(ptr noundef %0, ptr noundef %1, i32 noundef %2) local_unnamed_addr #0 {
  %4 = alloca [2 x %struct.ossl_param_st], align 16
  %5 = alloca %struct.ossl_param_st, align 8
  call void @llvm.lifetime.start.p0(i64 80, ptr nonnull %4) #4
  %6 = icmp eq ptr %0, null
  br i1 %6, label %10, label %7

7:                                                ; preds = %3
  %8 = load i32, ptr %0, align 8, !tbaa !7
  %9 = and i32 %8, 2048
  %.not.i = icmp eq i32 %9, 0
  br i1 %.not.i, label %10, label %11

10:                                               ; preds = %7, %3
  tail call void @ERR_new() #4
  tail call void @ERR_set_debug(ptr noundef nonnull @.str.1, i32 noundef 27, ptr noundef nonnull @__func__.evp_pkey_ctx_getset_ecdh_param_checks) #4
  tail call void (i32, i32, ptr, ...) @ERR_set_error(i32 noundef 6, i32 noundef 147, ptr noundef null) #4
  br label %evp_pkey_ctx_getset_ecdh_param_checks.exit.thread

11:                                               ; preds = %7
  %12 = getelementptr inbounds nuw i8, ptr %0, i64 32
  %13 = load ptr, ptr %12, align 8, !tbaa !20
  %14 = icmp eq ptr %13, null
  br i1 %14, label %15, label %evp_pkey_ctx_getset_ecdh_param_checks.exit

15:                                               ; preds = %11
  %16 = getelementptr inbounds nuw i8, ptr %0, i64 120
  %17 = load ptr, ptr %16, align 8, !tbaa !21
  %.not7.i = icmp eq ptr %17, null
  br i1 %.not7.i, label %evp_pkey_ctx_getset_ecdh_param_checks.exit, label %18

18:                                               ; preds = %15
  %19 = load i32, ptr %17, align 8, !tbaa !22
  %.not8.i = icmp eq i32 %19, 408
  br i1 %.not8.i, label %evp_pkey_ctx_getset_ecdh_param_checks.exit, label %evp_pkey_ctx_getset_ecdh_param_checks.exit.thread

evp_pkey_ctx_getset_ecdh_param_checks.exit:       ; preds = %18, %15, %11
  %20 = getelementptr inbounds nuw i8, ptr %4, i64 40
  %21 = sext i32 %2 to i64
  call void @OSSL_PARAM_construct_octet_string(ptr dead_on_unwind nonnull writable sret(%struct.ossl_param_st) align 8 %4, ptr noundef nonnull @.str.3, ptr noundef %1, i64 noundef %21) #4
  call void @llvm.lifetime.start.p0(i64 40, ptr nonnull %5) #4
  call void @OSSL_PARAM_construct_end(ptr dead_on_unwind nonnull writable sret(%struct.ossl_param_st) align 8 %5) #4
  call void @llvm.memcpy.p0.p0.i64(ptr noundef nonnull align 8 dereferenceable(40) %20, ptr noundef nonnull align 8 dereferenceable(40) %5, i64 40, i1 false), !tbaa.struct !24
  call void @llvm.lifetime.end.p0(i64 40, ptr nonnull %5) #4
  %22 = call i32 @evp_pkey_ctx_set_params_strict(ptr noundef nonnull %0, ptr noundef nonnull %4) #4
  switch i32 %22, label %evp_pkey_ctx_getset_ecdh_param_checks.exit.thread [
    i32 -2, label %23
    i32 1, label %24
  ]

23:                                               ; preds = %evp_pkey_ctx_getset_ecdh_param_checks.exit
  call void @ERR_new() #4
  call void @ERR_set_debug(ptr noundef nonnull @.str.1, i32 noundef 232, ptr noundef nonnull @__func__.EVP_PKEY_CTX_set0_ecdh_kdf_ukm) #4
  call void (i32, i32, ptr, ...) @ERR_set_error(i32 noundef 6, i32 noundef 147, ptr noundef null) #4
  br label %evp_pkey_ctx_getset_ecdh_param_checks.exit.thread

24:                                               ; preds = %evp_pkey_ctx_getset_ecdh_param_checks.exit
  call void @CRYPTO_free(ptr noundef %1, ptr noundef nonnull @.str.1, i32 noundef 235) #4
  br label %evp_pkey_ctx_getset_ecdh_param_checks.exit.thread

evp_pkey_ctx_getset_ecdh_param_checks.exit.thread: ; preds = %18, %10, %evp_pkey_ctx_getset_ecdh_param_checks.exit, %23, %24
  %.0 = phi i32 [ 1, %24 ], [ -2, %23 ], [ %22, %evp_pkey_ctx_getset_ecdh_param_checks.exit ], [ -1, %18 ], [ -2, %10 ]
  call void @llvm.lifetime.end.p0(i64 80, ptr nonnull %4) #4
  ret i32 %.0
}